target datalayout = "e-m:e-p270:32:32-p271:32:32-p272:64:64-i64:64-i128:128-f80:128-n8:16:32:64-S128"
target triple = "x86_64-pc-linux-gnu"

%struct.QemuMutex = type { %union.pthread_mutex_t, i8 }
%union.pthread_mutex_t = type { %struct.__pthread_mutex_s }
%struct.__pthread_mutex_s = type { i32, i32, i32, i32, i32, i16, i16, %struct.__pthread_internal_list }
%struct.__pthread_internal_list = type { ptr, ptr }
%struct.QemuLockable = type { ptr, ptr, ptr }
%struct.Job = type { ptr, ptr, ptr, i8, i8, ptr, ptr, %struct.ProgressMeter, ptr, i32, i32, %struct.QEMUTimer, i32, i8, i8, i8, i8, i8, i8, i32, ptr, %struct.NotifierList, %struct.NotifierList, %struct.NotifierList, %struct.NotifierList, %struct.NotifierList, %struct.anon.1, ptr, %struct.anon.2 }
%struct.ProgressMeter = type { i64, i64, %struct.QemuMutex }
%struct.QEMUTimer = type { i64, ptr, ptr, ptr, ptr, i32, i32 }
%struct.NotifierList = type { %struct.anon.0 }
%struct.anon.0 = type { ptr }
%struct.anon.1 = type { ptr, ptr }
%struct.anon.2 = type { ptr, ptr }
%struct.JobDriver = type { i64, i32, ptr, ptr, ptr, ptr, ptr, ptr, ptr, ptr, ptr, ptr, ptr }

@job_mutex = dso_local global %struct.QemuMutex zeroinitializer, align 8
@.str = private unnamed_addr constant [14 x i8] c"../qemu/job.c\00", align 1
@.str.24 = private unnamed_addr constant [13 x i8] c"coroutine_fn\00", section "llvm.metadata"
@.str.25 = private unnamed_addr constant [97 x i8] c"/home/dtcxzyw/WorkSpace/Projects/compilers/llvm-opt-benchmark/bench/qemu/qemu/include/qemu/job.h\00", section "llvm.metadata"
@.str.43 = private unnamed_addr constant [39 x i8] c"job && job->driver && job->driver->run\00", align 1
@__PRETTY_FUNCTION__.job_co_entry = private unnamed_addr constant [26 x i8] c"void job_co_entry(void *)\00", align 1
@.str.44 = private unnamed_addr constant [51 x i8] c"job->aio_context == qemu_get_current_aio_context()\00", align 1
@.str.45 = private unnamed_addr constant [9 x i8] c"job_exit\00", align 1

; Function Attrs: inlinehint nounwind sspstrong uwtable
define internal void @qemu_lockable_unlock(ptr noundef %0) #7 {
  %2 = alloca ptr, align 8
  store ptr %0, ptr %2, align 8
  %3 = load ptr, ptr %2, align 8
  %4 = getelementptr inbounds nuw %struct.QemuLockable, ptr %3, i32 0, i32 2
  %5 = load ptr, ptr %4, align 8
  %6 = load ptr, ptr %2, align 8
  %7 = getelementptr inbounds nuw %struct.QemuLockable, ptr %6, i32 0, i32 0
  %8 = load ptr, ptr %7, align 8
  call void %5(ptr noundef %8)
  ret void
}

; Function Attrs: inlinehint nounwind sspstrong uwtable
define internal void @glib_autoptr_clear_QemuLockable(ptr noundef %0) #7 {
  %2 = alloca ptr, align 8
  store ptr %0, ptr %2, align 8
  %3 = load ptr, ptr %2, align 8
  %4 = icmp ne ptr %3, null
  br i1 %4, label %5, label %7

5:                                                ; preds = %1
  %6 = load ptr, ptr %2, align 8
  call void @qemu_lockable_auto_unlock(ptr noundef %6)
  br label %7

7:                                                ; preds = %5, %1
  ret void
}

; Function Attrs: inlinehint nounwind sspstrong uwtable
define internal void @qemu_lockable_lock(ptr noundef %0) #7 {
  %2 = alloca ptr, align 8
  store ptr %0, ptr %2, align 8
  %3 = load ptr, ptr %2, align 8
  %4 = getelementptr inbounds nuw %struct.QemuLockable, ptr %3, i32 0, i32 1
  %5 = load ptr, ptr %4, align 8
  %6 = load ptr, ptr %2, align 8
  %7 = getelementptr inbounds nuw %struct.QemuLockable, ptr %6, i32 0, i32 0
  %8 = load ptr, ptr %7, align 8
  call void %5(ptr noundef %8)
  ret void
}

; Function Attrs: inlinehint nounwind sspstrong uwtable
define internal void @qemu_lockable_auto_unlock(ptr noundef %0) #7 {
  %2 = alloca ptr, align 8
  store ptr %0, ptr %2, align 8
  %3 = load ptr, ptr %2, align 8
  %4 = icmp ne ptr %3, null
  br i1 %4, label %5, label %7

5:                                                ; preds = %1
  %6 = load ptr, ptr %2, align 8
  call void @qemu_lockable_unlock(ptr noundef %6)
  br label %7

7:                                                ; preds = %5, %1
  ret void
}

; Function Attrs: inlinehint nounwind sspstrong uwtable
define internal void @glib_autoptr_cleanup_QemuLockable(ptr noundef %0) #7 {
  %2 = alloca ptr, align 8
  store ptr %0, ptr %2, align 8
  %3 = load ptr, ptr %2, align 8
  %4 = load ptr, ptr %3, align 8
  call void @glib_autoptr_clear_QemuLockable(ptr noundef %4)
  ret void
}

; Function Attrs: inlinehint nounwind sspstrong uwtable
define internal ptr @qemu_lockable_auto_lock(ptr noundef %0) #7 {
  %2 = alloca ptr, align 8
  store ptr %0, ptr %2, align 8
  %3 = load ptr, ptr %2, align 8
  call void @qemu_lockable_lock(ptr noundef %3)
  %4 = load ptr, ptr %2, align 8
  ret ptr %4
}

; Function Attrs: nounwind sspstrong uwtable
define internal void @job_co_entry(ptr noundef %0) #0 {
  %2 = alloca ptr, align 8
  %3 = alloca ptr, align 8
  %4 = alloca i32, align 4
  %5 = alloca ptr, align 8
  %6 = alloca %struct.QemuLockable, align 8
  %7 = alloca ptr, align 8
  %8 = alloca %struct.QemuLockable, align 8
  store ptr %0, ptr %2, align 8
  call void @llvm.lifetime.start.p0(i64 8, ptr %3) #16
  %9 = load ptr, ptr %2, align 8
  store ptr %9, ptr %3, align 8
  call void @llvm.lifetime.start.p0(i64 4, ptr %4) #16
  store i32 0, ptr %4, align 4, !annotation !5
  %10 = load ptr, ptr %3, align 8
  %11 = icmp ne ptr %10, null
  br i1 %11, label %12, label %26

12:                                               ; preds = %1
  %13 = load ptr, ptr %3, align 8
  %14 = getelementptr inbounds nuw %struct.Job, ptr %13, i32 0, i32 1
  %15 = load ptr, ptr %14, align 8
  %16 = icmp ne ptr %15, null
  br i1 %16, label %17, label %26

17:                                               ; preds = %12
  %18 = load ptr, ptr %3, align 8
  %19 = getelementptr inbounds nuw %struct.Job, ptr %18, i32 0, i32 1
  %20 = load ptr, ptr %19, align 8
  %21 = getelementptr inbounds nuw %struct.JobDriver, ptr %20, i32 0, i32 2
  %22 = call ptr @llvm.ptr.annotation.p0.p0(ptr %21, ptr @.str.24, ptr @.str.25, i32 216, ptr null)
  %23 = load ptr, ptr %22, align 8
  %24 = icmp ne ptr %23, null
  br i1 %24, label %25, label %26

25:                                               ; preds = %17
  br label %27

26:                                               ; preds = %17, %12, %1
  call void @__assert_fail(ptr noundef @.str.43, ptr noundef @.str, i32 noundef 1101, ptr noundef @__PRETTY_FUNCTION__.job_co_entry) #20
  unreachable

27:                                               ; preds = %25
  call void @llvm.lifetime.start.p0(i64 8, ptr %5) #16
  %28 = getelementptr inbounds nuw %struct.QemuLockable, ptr %6, i32 0, i32 0
  store ptr @job_mutex, ptr %28, align 8
  %29 = getelementptr inbounds nuw %struct.QemuLockable, ptr %6, i32 0, i32 1
  store ptr @qemu_lockable_mutex_lock, ptr %29, align 8
  %30 = getelementptr inbounds nuw %struct.QemuLockable, ptr %6, i32 0, i32 2
  store ptr @qemu_lockable_mutex_unlock, ptr %30, align 8
  %31 = call ptr @qemu_lockable_auto_lock(ptr noundef %6)
  store ptr %31, ptr %5, align 8
  br label %32

32:                                               ; preds = %46, %27
  %33 = load ptr, ptr %5, align 8
  %34 = icmp ne ptr %33, null
  br i1 %34, label %36, label %35

35:                                               ; preds = %32
  call void @glib_autoptr_cleanup_QemuLockable(ptr noundef %5)
  call void @llvm.lifetime.end.p0(i64 8, ptr %5) #16
  br label %48

36:                                               ; preds = %32
  %37 = load ptr, ptr %3, align 8
  %38 = getelementptr inbounds nuw %struct.Job, ptr %37, i32 0, i32 8
  %39 = load ptr, ptr %38, align 8
  %40 = call ptr @qemu_get_current_aio_context()
  %41 = icmp eq ptr %39, %40
  br i1 %41, label %42, label %43

42:                                               ; preds = %36
  br label %44

43:                                               ; preds = %36
  call void @__assert_fail(ptr noundef @.str.44, ptr noundef @.str, i32 noundef 1103, ptr noundef @__PRETTY_FUNCTION__.job_co_entry) #20
  unreachable

44:                                               ; preds = %42
  %45 = load ptr, ptr %3, align 8
  call void @job_pause_point_locked(ptr noundef %45)
  br label %46

46:                                               ; preds = %44
  %47 = load ptr, ptr %5, align 8
  call void @qemu_lockable_auto_unlock(ptr noundef %47)
  store ptr null, ptr %5, align 8
  br label %32, !llvm.loop !13

48:                                               ; preds = %35
  %49 = load ptr, ptr %3, align 8
  %50 = getelementptr inbounds nuw %struct.Job, ptr %49, i32 0, i32 1
  %51 = load ptr, ptr %50, align 8
  %52 = getelementptr inbounds nuw %struct.JobDriver, ptr %51, i32 0, i32 2
  %53 = call ptr @llvm.ptr.annotation.p0.p0(ptr %52, ptr @.str.24, ptr @.str.25, i32 216, ptr null)
  %54 = load ptr, ptr %53, align 8
  %55 = load ptr, ptr %3, align 8
  %56 = load ptr, ptr %3, align 8
  %57 = getelementptr inbounds nuw %struct.Job, ptr %56, i32 0, i32 20
  %58 = call i32 %54(ptr noundef %55, ptr noundef %57)
  store i32 %58, ptr %4, align 4
  call void @llvm.lifetime.start.p0(i64 8, ptr %7) #16
  %59 = getelementptr inbounds nuw %struct.QemuLockable, ptr %8, i32 0, i32 0
  store ptr @job_mutex, ptr %59, align 8
  %60 = getelementptr inbounds nuw %struct.QemuLockable, ptr %8, i32 0, i32 1
  store ptr @qemu_lockable_mutex_lock, ptr %60, align 8
  %61 = getelementptr inbounds nuw %struct.QemuLockable, ptr %8, i32 0, i32 2
  store ptr @qemu_lockable_mutex_unlock, ptr %61, align 8
  %62 = call ptr @qemu_lockable_auto_lock(ptr noundef %8)
  store ptr %62, ptr %7, align 8
  br label %63

63:                                               ; preds = %75, %48
  %64 = load ptr, ptr %7, align 8
  %65 = icmp ne ptr %64, null
  br i1 %65, label %67, label %66

66:                                               ; preds = %63
  call void @glib_autoptr_cleanup_QemuLockable(ptr noundef %7)
  call void @llvm.lifetime.end.p0(i64 8, ptr %7) #16
  br label %77

67:                                               ; preds = %63
  %68 = load i32, ptr %4, align 4
  %69 = load ptr, ptr %3, align 8
  %70 = getelementptr inbounds nuw %struct.Job, ptr %69, i32 0, i32 19
  store i32 %68, ptr %70, align 4
  %71 = load ptr, ptr %3, align 8
  %72 = getelementptr inbounds nuw %struct.Job, ptr %71, i32 0, i32 18
  store i8 1, ptr %72, align 1
  %73 = load ptr, ptr %3, align 8
  %74 = getelementptr inbounds nuw %struct.Job, ptr %73, i32 0, i32 13
  store i8 1, ptr %74, align 4
  br label %75

75:                                               ; preds = %67
  %76 = load ptr, ptr %7, align 8
  call void @qemu_lockable_auto_unlock(ptr noundef %76)
  store ptr null, ptr %7, align 8
  br label %63, !llvm.loop !14

77:                                               ; preds = %66
  %78 = call ptr @qemu_get_aio_context()
  %79 = load ptr, ptr %3, align 8
  call void @aio_bh_schedule_oneshot_full(ptr noundef %78, ptr noundef @job_exit, ptr noundef %79, ptr noundef @.str.45)
  call void @llvm.lifetime.end.p0(i64 4, ptr %4) #16
  call void @llvm.lifetime.end.p0(i64 8, ptr %3) #16
  ret void
}