; Function Attrs: nounwind sspstrong uwtable
define internal void @job_co_entry(ptr noundef %0) #0 {
  %.not = icmp eq ptr %0, null
  br i1 %.not, label %9, label %2

2:                                                ; preds = %1
  %3 = getelementptr inbounds nuw i8, ptr %0, i64 8
  %4 = load ptr, ptr %3, align 8
  %.not14 = icmp eq ptr %4, null
  br i1 %.not14, label %9, label %5

5:                                                ; preds = %2
  %6 = getelementptr inbounds nuw i8, ptr %4, i64 16
  %7 = tail call ptr @llvm.ptr.annotation.p0.p0(ptr nonnull %6, ptr nonnull @.str.24, ptr nonnull @.str.25, i32 216, ptr null)
  %8 = load ptr, ptr %7, align 8
  %.not15 = icmp eq ptr %8, null
  br i1 %.not15, label %9, label %.split.us

9:                                                ; preds = %5, %2, %1
  tail call void @__assert_fail(ptr noundef nonnull @.str.43, ptr noundef nonnull @.str, i32 noundef 1101, ptr noundef nonnull @__PRETTY_FUNCTION__.job_co_entry) #17
  unreachable

.split.us:                                        ; preds = %5
  %10 = load atomic i64, ptr @qemu_mutex_lock_func monotonic, align 8
  %11 = inttoptr i64 %10 to ptr
  tail call void %11(ptr noundef nonnull @job_mutex, ptr noundef nonnull @.str.29, i32 noundef 56) #15
  %12 = getelementptr inbounds nuw i8, ptr %0, i64 112
  %13 = load ptr, ptr %12, align 8
  %14 = tail call ptr @qemu_get_current_aio_context() #15
  %15 = icmp eq ptr %13, %14
  br i1 %15, label %qemu_lockable_auto_unlock.exit32.us, label %.split36.us

qemu_lockable_auto_unlock.exit32.us:              ; preds = %.split.us
  tail call void @job_pause_point_locked(ptr noundef nonnull %0)
  tail call void @qemu_mutex_unlock_impl(ptr noundef nonnull @job_mutex, ptr noundef nonnull @.str.29, i32 noundef 56) #15
  %16 = load ptr, ptr %3, align 8
  %17 = getelementptr inbounds nuw i8, ptr %16, i64 16
  %18 = tail call ptr @llvm.ptr.annotation.p0.p0(ptr nonnull %17, ptr nonnull @.str.24, ptr nonnull @.str.25, i32 216, ptr null)
  %19 = load ptr, ptr %18, align 8
  %20 = getelementptr inbounds nuw i8, ptr %0, i64 192
  %21 = tail call i32 %19(ptr noundef nonnull %0, ptr noundef nonnull %20) #15
  %22 = load atomic i64, ptr @qemu_mutex_lock_func monotonic, align 8
  %23 = inttoptr i64 %22 to ptr
  tail call void %23(ptr noundef nonnull @job_mutex, ptr noundef nonnull @.str.29, i32 noundef 56) #15
  %24 = getelementptr inbounds nuw i8, ptr %0, i64 180
  %25 = getelementptr inbounds nuw i8, ptr %0, i64 185
  %26 = getelementptr inbounds nuw i8, ptr %0, i64 188
  store i32 %21, ptr %26, align 4
  store i8 1, ptr %25, align 1
  store i8 1, ptr %24, align 4
  tail call void @qemu_mutex_unlock_impl(ptr noundef nonnull @job_mutex, ptr noundef nonnull @.str.29, i32 noundef 56) #15
  %27 = tail call ptr @qemu_get_aio_context() #15
  tail call void @aio_bh_schedule_oneshot_full(ptr noundef %27, ptr noundef nonnull @job_exit, ptr noundef nonnull %0, ptr noundef nonnull @.str.45) #15
  ret void

.split36.us:                                      ; preds = %.split.us
  tail call void @__assert_fail(ptr noundef nonnull @.str.44, ptr noundef nonnull @.str, i32 noundef 1103, ptr noundef nonnull @__PRETTY_FUNCTION__.job_co_entry) #17
  unreachable
}